; Function Attrs: cold nounwind optsize uwtable
define internal noundef i32 @decode_end(ptr noundef readonly captures(none) %0) #2 {
  %2 = getelementptr inbounds nuw i8, ptr %0, i64 32
  %3 = load ptr, ptr %2, align 8, !tbaa !16
  %4 = getelementptr inbounds nuw i8, ptr %3, i64 2141888
  tail call void @ff_slice_buffer_destroy(ptr noundef nonnull %4) #8
  tail call void @ff_snow_common_end(ptr noundef %3) #8
  %5 = getelementptr inbounds nuw i8, ptr %3, i64 2141952
  store i32 0, ptr %5, align 8, !tbaa !105
  %6 = getelementptr inbounds nuw i8, ptr %3, i64 2141944
  tail call void @av_freep(ptr noundef nonnull %6) #8
  ret i32 0
}